target datalayout = "e-m:e-p270:32:32-p271:32:32-p272:64:64-i64:64-i128:128-f80:128-n8:16:32:64-S128"
target triple = "x86_64-pc-linux-gnu"

; Function Attrs: mustprogress nounwind uwtable
define dso_local noundef i64 @_ZN4Luau9hashRangeEPKcm(ptr noundef %0, i64 noundef %1) #5 {
  %3 = alloca ptr, align 8
  %4 = alloca i64, align 8
  %5 = alloca i32, align 4
  %6 = alloca i64, align 8
  store ptr %0, ptr %3, align 8
  store i64 %1, ptr %4, align 8
  store i32 -2128831035, ptr %5, align 4
  store i64 0, ptr %6, align 8
  br label %7

7:                                                ; preds = %21, %2
  %8 = load i64, ptr %6, align 8
  %9 = load i64, ptr %4, align 8
  %10 = icmp ult i64 %8, %9
  br i1 %10, label %11, label %24

11:                                               ; preds = %7
  %12 = load ptr, ptr %3, align 8
  %13 = load i64, ptr %6, align 8
  %14 = getelementptr inbounds i8, ptr %12, i64 %13
  %15 = load i8, ptr %14, align 1
  %16 = zext i8 %15 to i32
  %17 = load i32, ptr %5, align 4
  %18 = xor i32 %17, %16
  store i32 %18, ptr %5, align 4
  %19 = load i32, ptr %5, align 4
  %20 = mul i32 %19, 16777619
  store i32 %20, ptr %5, align 4
  br label %21

21:                                               ; preds = %11
  %22 = load i64, ptr %6, align 8
  %23 = add i64 %22, 1
  store i64 %23, ptr %6, align 8
  br label %7, !llvm.loop !16

24:                                               ; preds = %7
  %25 = load i32, ptr %5, align 4
  %26 = zext i32 %25 to i64
  ret i64 %26
}