; Function Attrs: mustprogress nofree norecurse nosync nounwind willreturn memory(argmem: read) uwtable
define dso_local noundef range(i64 0, 4294967296) i64 @_ZN4Luau9hashRangeEPKcm(ptr nocapture noundef readonly %0, i64 noundef %1) local_unnamed_addr #9 {
  %.not = icmp eq i64 %1, 0
  br i1 %.not, label %._crit_edge, label %.lr.ph

.lr.ph:                                           ; preds = %2, %.lr.ph
  %.09 = phi i64 [ %8, %.lr.ph ], [ 0, %2 ]
  %.078 = phi i32 [ %7, %.lr.ph ], [ -2128831035, %2 ]
  %3 = getelementptr inbounds i8, ptr %0, i64 %.09
  %4 = load i8, ptr %3, align 1
  %5 = zext i8 %4 to i32
  %6 = xor i32 %.078, %5
  %7 = mul i32 %6, 16777619
  %8 = add nuw i64 %.09, 1
  %exitcond.not = icmp eq i64 %8, %1
  br i1 %exitcond.not, label %._crit_edge.loopexit, label %.lr.ph, !llvm.loop !31

._crit_edge.loopexit:                             ; preds = %.lr.ph
  %9 = zext i32 %7 to i64
  br label %._crit_edge

._crit_edge:                                      ; preds = %._crit_edge.loopexit, %2
  %.07.lcssa = phi i64 [ 2166136261, %2 ], [ %9, %._crit_edge.loopexit ]
  ret i64 %.07.lcssa
}